target datalayout = "e-m:e-p270:32:32-p271:32:32-p272:64:64-i64:64-i128:128-f80:128-n8:16:32:64-S128"
target triple = "x86_64-pc-linux-gnu"

%struct.strbuf = type { i64, i64, ptr }

@.str.12 = private unnamed_addr constant [4 x i8] c"\1B[m\00", align 1
@.str.23 = private unnamed_addr constant [3 x i8] c"%s\00", align 1

; Function Attrs: nounwind uwtable
define dso_local void @color_print_strbuf(ptr noundef %0, ptr noundef %1, ptr noundef %2) #0 {
  %4 = alloca ptr, align 8
  %5 = alloca ptr, align 8
  %6 = alloca ptr, align 8
  store ptr %0, ptr %4, align 8, !tbaa !38
  store ptr %1, ptr %5, align 8, !tbaa !4
  store ptr %2, ptr %6, align 8, !tbaa !40
  %7 = load ptr, ptr %5, align 8, !tbaa !4
  %8 = load i8, ptr %7, align 1, !tbaa !11
  %9 = icmp ne i8 %8, 0
  br i1 %9, label %10, label %14

10:                                               ; preds = %3
  %11 = load ptr, ptr %4, align 8, !tbaa !38
  %12 = load ptr, ptr %5, align 8, !tbaa !4
  %13 = call i32 (ptr, ptr, ...) @fprintf(ptr noundef %11, ptr noundef @.str.23, ptr noundef %12) #11
  br label %14

14:                                               ; preds = %10, %3
  %15 = load ptr, ptr %4, align 8, !tbaa !38
  %16 = load ptr, ptr %6, align 8, !tbaa !40
  %17 = getelementptr inbounds nuw %struct.strbuf, ptr %16, i32 0, i32 2
  %18 = load ptr, ptr %17, align 8, !tbaa !42
  %19 = call i32 (ptr, ptr, ...) @fprintf(ptr noundef %15, ptr noundef @.str.23, ptr noundef %18) #11
  %20 = load ptr, ptr %5, align 8, !tbaa !4
  %21 = load i8, ptr %20, align 1, !tbaa !11
  %22 = icmp ne i8 %21, 0
  br i1 %22, label %23, label %26

23:                                               ; preds = %14
  %24 = load ptr, ptr %4, align 8, !tbaa !38
  %25 = call i32 (ptr, ptr, ...) @fprintf(ptr noundef %24, ptr noundef @.str.23, ptr noundef @.str.12) #11
  br label %26

26:                                               ; preds = %23, %14
  ret void
}