; Function Attrs: nofree nounwind uwtable
define dso_local void @color_print_strbuf(ptr noundef captures(none) %0, ptr noundef readonly captures(none) %1, ptr noundef readonly captures(none) %2) local_unnamed_addr #6 {
  %4 = load i8, ptr %1, align 1, !tbaa !4
  %.not = icmp eq i8 %4, 0
  br i1 %.not, label %6, label %5

5:                                                ; preds = %3
  %fputs = tail call i32 @fputs(ptr nonnull %1, ptr %0)
  br label %6

6:                                                ; preds = %5, %3
  %7 = getelementptr inbounds nuw i8, ptr %2, i64 16
  %8 = load ptr, ptr %7, align 8, !tbaa !24
  %fputs7 = tail call i32 @fputs(ptr %8, ptr %0)
  %9 = load i8, ptr %1, align 1, !tbaa !4
  %.not8 = icmp eq i8 %9, 0
  br i1 %.not8, label %12, label %10

10:                                               ; preds = %6
  %11 = tail call i64 @fwrite(ptr nonnull @.str.12, i64 3, i64 1, ptr %0)
  br label %12

12:                                               ; preds = %10, %6
  ret void
}